; Function Attrs: mustprogress nofree norecurse nosync nounwind willreturn memory(readwrite, inaccessiblemem: none) uwtable
define dso_local range(i32 -30, 2) i32 @onig_get_callout_data_by_callout_args_self_dont_clear_old(ptr noundef readonly captures(none) %0, i32 noundef %1, ptr noundef writeonly captures(address_is_null) %2, ptr noundef writeonly captures(address_is_null) %3) local_unnamed_addr #13 {
  %5 = getelementptr inbounds nuw i8, ptr %0, i64 8
  %6 = load i32, ptr %5, align 8, !tbaa !52
  %7 = icmp slt i32 %6, 1
  br i1 %7, label %onig_get_callout_data_dont_clear_old.exit, label %8

8:                                                ; preds = %4
  %9 = getelementptr inbounds nuw i8, ptr %0, i64 72
  %10 = load ptr, ptr %9, align 8, !tbaa !43
  %11 = getelementptr inbounds nuw i8, ptr %10, i64 72
  %12 = load ptr, ptr %11, align 8, !tbaa !48
  %13 = getelementptr inbounds nuw i8, ptr %12, i64 56
  %14 = load ptr, ptr %13, align 8, !tbaa !41
  %15 = zext nneg i32 %6 to i64
  %16 = getelementptr %struct.CalloutData, ptr %14, i64 %15
  %17 = getelementptr i8, ptr %16, i64 -120
  %18 = sext i32 %1 to i64
  %19 = getelementptr inbounds [5 x %struct.anon], ptr %17, i64 0, i64 %18
  %20 = load i32, ptr %19, align 8, !tbaa !53
  %.not.i = icmp eq ptr %2, null
  br i1 %.not.i, label %22, label %21

21:                                               ; preds = %8
  store i32 %20, ptr %2, align 4, !tbaa !24
  br label %22

22:                                               ; preds = %21, %8
  %.not16.i = icmp eq ptr %3, null
  br i1 %.not16.i, label %25, label %23

23:                                               ; preds = %22
  %24 = getelementptr inbounds nuw i8, ptr %19, i64 8
  tail call void @llvm.memcpy.p0.p0.i64(ptr noundef nonnull align 8 dereferenceable(16) %3, ptr noundef nonnull align 8 dereferenceable(16) %24, i64 16, i1 false), !tbaa.struct !55
  br label %25

25:                                               ; preds = %23, %22
  %26 = icmp eq i32 %20, 0
  %27 = zext i1 %26 to i32
  br label %onig_get_callout_data_dont_clear_old.exit

onig_get_callout_data_dont_clear_old.exit:        ; preds = %4, %25
  %.0.i = phi i32 [ %27, %25 ], [ -30, %4 ]
  ret i32 %.0.i
}